target datalayout = "e-m:e-p270:32:32-p271:32:32-p272:64:64-i64:64-i128:128-f80:128-n8:16:32:64-S128"
target triple = "x86_64-pc-linux-gnu"

%struct.Qureg = type { i32, i32, i32, i64, i64, i32, i32, %struct.ComplexArray, %struct.ComplexArray, %struct.ComplexArray, ptr, ptr, ptr, ptr, ptr, ptr }
%struct.ComplexArray = type { ptr, ptr }

@__func__.controlledNot = private unnamed_addr constant [14 x i8] c"controlledNot\00", align 1

; Function Attrs: nounwind uwtable
define void @controlledNot(ptr noundef byval(%struct.Qureg) align 8 %0, i32 noundef %1, i32 noundef %2) #0 {
  %4 = alloca i32, align 4
  %5 = alloca i32, align 4
  %6 = alloca i32, align 4
  store i32 %1, ptr %4, align 4, !tbaa !4
  store i32 %2, ptr %5, align 4, !tbaa !4
  %7 = load i32, ptr %4, align 4, !tbaa !4
  %8 = load i32, ptr %5, align 4, !tbaa !4
  call void @validateControlTarget(ptr noundef byval(%struct.Qureg) align 8 %0, i32 noundef %7, i32 noundef %8, ptr noundef @__func__.controlledNot)
  %9 = load i32, ptr %4, align 4, !tbaa !4
  %10 = load i32, ptr %5, align 4, !tbaa !4
  call void @statevec_controlledNot(ptr noundef byval(%struct.Qureg) align 8 %0, i32 noundef %9, i32 noundef %10)
  %11 = getelementptr inbounds nuw %struct.Qureg, ptr %0, i32 0, i32 0
  %12 = load i32, ptr %11, align 8, !tbaa !13
  %13 = icmp ne i32 %12, 0
  br i1 %13, label %14, label %23

14:                                               ; preds = %3
  call void @llvm.lifetime.start.p0(i64 4, ptr %6) #7
  %15 = getelementptr inbounds nuw %struct.Qureg, ptr %0, i32 0, i32 1
  %16 = load i32, ptr %15, align 4, !tbaa !18
  store i32 %16, ptr %6, align 4, !tbaa !4
  %17 = load i32, ptr %4, align 4, !tbaa !4
  %18 = load i32, ptr %6, align 4, !tbaa !4
  %19 = add nsw i32 %17, %18
  %20 = load i32, ptr %5, align 4, !tbaa !4
  %21 = load i32, ptr %6, align 4, !tbaa !4
  %22 = add nsw i32 %20, %21
  call void @statevec_controlledNot(ptr noundef byval(%struct.Qureg) align 8 %0, i32 noundef %19, i32 noundef %22)
  call void @llvm.lifetime.end.p0(i64 4, ptr %6) #7
  br label %23

23:                                               ; preds = %14, %3
  %24 = load i32, ptr %4, align 4, !tbaa !4
  %25 = load i32, ptr %5, align 4, !tbaa !4
  call void @qasm_recordControlledGate(ptr noundef byval(%struct.Qureg) align 8 %0, i32 noundef 0, i32 noundef %24, i32 noundef %25)
  ret void
}